target datalayout = "e-m:e-p270:32:32-p271:32:32-p272:64:64-i64:64-i128:128-f80:128-n8:16:32:64-S128"
target triple = "x86_64-pc-linux-gnu"

%struct._object = type { %union.anon.41, ptr }
%union.anon.41 = type { i64 }
%struct.PyVarObject = type { %struct._object, i64 }
%struct._typeobject = type { %struct.PyVarObject, ptr, i64, i64, ptr, i64, ptr, ptr, ptr, ptr, ptr, ptr, ptr, ptr, ptr, ptr, ptr, ptr, ptr, i64, ptr, ptr, ptr, ptr, i64, ptr, ptr, ptr, ptr, ptr, ptr, ptr, ptr, ptr, i64, ptr, ptr, ptr, ptr, ptr, ptr, ptr, ptr, ptr, ptr, ptr, i32, ptr, ptr, i8, i16 }
%struct.anon.42 = type { i32, i32 }

@.str.2 = private unnamed_addr constant [8 x i8] c"replace\00", align 1
@.str.121 = private unnamed_addr constant [4 x i8] c"str\00", align 1
@.str.279 = private unnamed_addr constant [11 x i8] c"argument 1\00", align 1
@.str.280 = private unnamed_addr constant [11 x i8] c"argument 2\00", align 1

; Function Attrs: alwaysinline nounwind uwtable
define internal i32 @_Py_IsImmortal(ptr noundef %0) #9 {
  %2 = alloca ptr, align 8
  store ptr %0, ptr %2, align 8, !tbaa !4
  %3 = load ptr, ptr %2, align 8, !tbaa !4
  %4 = getelementptr inbounds nuw %struct._object, ptr %3, i32 0, i32 0
  %5 = getelementptr inbounds nuw %struct.anon.42, ptr %4, i32 0, i32 0
  %6 = load i32, ptr %5, align 8, !tbaa !191
  %7 = icmp slt i32 %6, 0
  %8 = zext i1 %7 to i32
  ret i32 %8
}

; Function Attrs: inlinehint nounwind uwtable
define internal i64 @Py_SIZE(ptr noundef %0) #2 {
  %2 = alloca ptr, align 8
  store ptr %0, ptr %2, align 8, !tbaa !4
  %3 = load ptr, ptr %2, align 8, !tbaa !4
  %4 = getelementptr inbounds nuw %struct.PyVarObject, ptr %3, i32 0, i32 1
  %5 = load i64, ptr %4, align 8, !tbaa !499
  ret i64 %5
}

; Function Attrs: nounwind uwtable
define internal ptr @unicode_replace_impl(ptr noundef %0, ptr noundef %1, ptr noundef %2, i64 noundef %3) #0 {
  %5 = alloca ptr, align 8
  %6 = alloca ptr, align 8
  %7 = alloca ptr, align 8
  %8 = alloca i64, align 8
  store ptr %0, ptr %5, align 8, !tbaa !4
  store ptr %1, ptr %6, align 8, !tbaa !4
  store ptr %2, ptr %7, align 8, !tbaa !4
  store i64 %3, ptr %8, align 8, !tbaa !185
  %9 = load ptr, ptr %5, align 8, !tbaa !4
  %10 = load ptr, ptr %6, align 8, !tbaa !4
  %11 = load ptr, ptr %7, align 8, !tbaa !4
  %12 = load i64, ptr %8, align 8, !tbaa !185
  %13 = call ptr @replace(ptr noundef %9, ptr noundef %10, ptr noundef %11, i64 noundef %12)
  ret ptr %13
}

; Function Attrs: alwaysinline nounwind uwtable
define internal void @Py_DECREF(ptr noundef %0) #9 {
  %2 = alloca ptr, align 8
  store ptr %0, ptr %2, align 8, !tbaa !4
  %3 = load ptr, ptr %2, align 8, !tbaa !4
  %4 = call i32 @_Py_IsImmortal(ptr noundef %3)
  %5 = icmp ne i32 %4, 0
  br i1 %5, label %6, label %7

6:                                                ; preds = %1
  br label %16

7:                                                ; preds = %1
  %8 = load ptr, ptr %2, align 8, !tbaa !4
  %9 = getelementptr inbounds nuw %struct._object, ptr %8, i32 0, i32 0
  %10 = getelementptr inbounds nuw %struct.anon.42, ptr %9, i32 0, i32 0
  %11 = load i32, ptr %10, align 8, !tbaa !191
  %12 = add i32 %11, -1
  store i32 %12, ptr %10, align 8, !tbaa !191
  %13 = icmp eq i32 %12, 0
  br i1 %13, label %14, label %16

14:                                               ; preds = %7
  %15 = load ptr, ptr %2, align 8, !tbaa !4
  call void @_Py_Dealloc(ptr noundef %15)
  br label %16

16:                                               ; preds = %6, %14, %7
  ret void
}

; Function Attrs: inlinehint nounwind uwtable
define internal i32 @PyType_HasFeature(ptr noundef %0, i64 noundef %1) #2 {
  %3 = alloca ptr, align 8
  %4 = alloca i64, align 8
  %5 = alloca i64, align 8
  store ptr %0, ptr %3, align 8, !tbaa !196
  store i64 %1, ptr %4, align 8, !tbaa !185
  call void @llvm.lifetime.start.p0(i64 8, ptr %5) #12
  %6 = load ptr, ptr %3, align 8, !tbaa !196
  %7 = getelementptr inbounds nuw %struct._typeobject, ptr %6, i32 0, i32 19
  %8 = load i64, ptr %7, align 8, !tbaa !197
  store i64 %8, ptr %5, align 8, !tbaa !185
  %9 = load i64, ptr %5, align 8, !tbaa !185
  %10 = load i64, ptr %4, align 8, !tbaa !185
  %11 = and i64 %9, %10
  %12 = icmp ne i64 %11, 0
  %13 = zext i1 %12 to i32
  call void @llvm.lifetime.end.p0(i64 8, ptr %5) #12
  ret i32 %13
}

; Function Attrs: inlinehint nounwind uwtable
define internal ptr @_Py_TYPE(ptr noundef %0) #2 {
  %2 = alloca ptr, align 8
  store ptr %0, ptr %2, align 8, !tbaa !4
  %3 = load ptr, ptr %2, align 8, !tbaa !4
  %4 = getelementptr inbounds nuw %struct._object, ptr %3, i32 0, i32 1
  %5 = load ptr, ptr %4, align 8, !tbaa !202
  ret ptr %5
}

; Function Attrs: inlinehint nounwind uwtable
define internal i64 @PyTuple_GET_SIZE(ptr noundef %0) #2 {
  %2 = alloca ptr, align 8
  %3 = alloca ptr, align 8
  store ptr %0, ptr %2, align 8, !tbaa !4
  call void @llvm.lifetime.start.p0(i64 8, ptr %3) #12
  %4 = load ptr, ptr %2, align 8, !tbaa !4
  store ptr %4, ptr %3, align 8, !tbaa !180
  %5 = load ptr, ptr %3, align 8, !tbaa !180
  %6 = call i64 @Py_SIZE(ptr noundef %5)
  call void @llvm.lifetime.end.p0(i64 8, ptr %3) #12
  ret i64 %6
}

; Function Attrs: nounwind uwtable
define internal ptr @unicode_replace(ptr noundef %0, ptr noundef %1, i64 noundef %2, ptr noundef %3) #0 {
  %5 = alloca ptr, align 8
  %6 = alloca ptr, align 8
  %7 = alloca ptr, align 8
  %8 = alloca i64, align 8
  %9 = alloca ptr, align 8
  %10 = alloca ptr, align 8
  %11 = alloca [3 x ptr], align 16
  %12 = alloca i64, align 8
  %13 = alloca ptr, align 8
  %14 = alloca ptr, align 8
  %15 = alloca i64, align 8
  %16 = alloca i64, align 8
  %17 = alloca ptr, align 8
  %18 = alloca i32, align 4
  store ptr %0, ptr %6, align 8, !tbaa !4
  store ptr %1, ptr %7, align 8, !tbaa !222
  store i64 %2, ptr %8, align 8, !tbaa !185
  store ptr %3, ptr %9, align 8, !tbaa !4
  call void @llvm.lifetime.start.p0(i64 8, ptr %10) #12
  store ptr null, ptr %10, align 8, !tbaa !4
  call void @llvm.lifetime.start.p0(i64 24, ptr %11) #12
  call void @llvm.lifetime.start.p0(i64 8, ptr %12) #12
  %19 = load i64, ptr %8, align 8, !tbaa !185
  %20 = load ptr, ptr %9, align 8, !tbaa !4
  %21 = icmp ne ptr %20, null
  br i1 %21, label %22, label %25

22:                                               ; preds = %4
  %23 = load ptr, ptr %9, align 8, !tbaa !4
  %24 = call i64 @PyTuple_GET_SIZE(ptr noundef %23)
  br label %26

25:                                               ; preds = %4
  br label %26

26:                                               ; preds = %25, %22
  %27 = phi i64 [ %24, %22 ], [ 0, %25 ]
  %28 = add i64 %19, %27
  %29 = sub i64 %28, 2
  store i64 %29, ptr %12, align 8, !tbaa !185
  call void @llvm.lifetime.start.p0(i64 8, ptr %13) #12
  call void @llvm.lifetime.start.p0(i64 8, ptr %14) #12
  call void @llvm.lifetime.start.p0(i64 8, ptr %15) #12
  store i64 -1, ptr %15, align 8, !tbaa !185
  %30 = load ptr, ptr %9, align 8, !tbaa !4
  %31 = icmp eq ptr %30, null
  br i1 %31, label %32, label %43

32:                                               ; preds = %26
  %33 = load i64, ptr %8, align 8, !tbaa !185
  %34 = icmp sle i64 2, %33
  br i1 %34, label %35, label %43

35:                                               ; preds = %32
  %36 = load i64, ptr %8, align 8, !tbaa !185
  %37 = icmp sle i64 %36, 3
  br i1 %37, label %38, label %43

38:                                               ; preds = %35
  %39 = load ptr, ptr %7, align 8, !tbaa !222
  %40 = icmp ne ptr %39, null
  br i1 %40, label %41, label %43

41:                                               ; preds = %38
  %42 = load ptr, ptr %7, align 8, !tbaa !222
  br label %49

43:                                               ; preds = %38, %35, %32, %26
  %44 = load ptr, ptr %7, align 8, !tbaa !222
  %45 = load i64, ptr %8, align 8, !tbaa !185
  %46 = load ptr, ptr %9, align 8, !tbaa !4
  %47 = getelementptr inbounds [3 x ptr], ptr %11, i64 0, i64 0
  %48 = call ptr @_PyArg_UnpackKeywords(ptr noundef %44, i64 noundef %45, ptr noundef null, ptr noundef %46, ptr noundef @unicode_replace._parser, i32 noundef 2, i32 noundef 3, i32 noundef 0, i32 noundef 0, ptr noundef %47)
  br label %49

49:                                               ; preds = %43, %41
  %50 = phi ptr [ %42, %41 ], [ %48, %43 ]
  store ptr %50, ptr %7, align 8, !tbaa !222
  %51 = load ptr, ptr %7, align 8, !tbaa !222
  %52 = icmp ne ptr %51, null
  br i1 %52, label %54, label %53

53:                                               ; preds = %49
  br label %115

54:                                               ; preds = %49
  %55 = load ptr, ptr %7, align 8, !tbaa !222
  %56 = getelementptr ptr, ptr %55, i64 0
  %57 = load ptr, ptr %56, align 8, !tbaa !4
  %58 = call ptr @_Py_TYPE(ptr noundef %57)
  %59 = call i32 @PyType_HasFeature(ptr noundef %58, i64 noundef 268435456)
  %60 = icmp ne i32 %59, 0
  br i1 %60, label %65, label %61

61:                                               ; preds = %54
  %62 = load ptr, ptr %7, align 8, !tbaa !222
  %63 = getelementptr ptr, ptr %62, i64 0
  %64 = load ptr, ptr %63, align 8, !tbaa !4
  call void @_PyArg_BadArgument(ptr noundef @.str.2, ptr noundef @.str.279, ptr noundef @.str.121, ptr noundef %64)
  br label %115

65:                                               ; preds = %54
  %66 = load ptr, ptr %7, align 8, !tbaa !222
  %67 = getelementptr ptr, ptr %66, i64 0
  %68 = load ptr, ptr %67, align 8, !tbaa !4
  store ptr %68, ptr %13, align 8, !tbaa !4
  %69 = load ptr, ptr %7, align 8, !tbaa !222
  %70 = getelementptr ptr, ptr %69, i64 1
  %71 = load ptr, ptr %70, align 8, !tbaa !4
  %72 = call ptr @_Py_TYPE(ptr noundef %71)
  %73 = call i32 @PyType_HasFeature(ptr noundef %72, i64 noundef 268435456)
  %74 = icmp ne i32 %73, 0
  br i1 %74, label %79, label %75

75:                                               ; preds = %65
  %76 = load ptr, ptr %7, align 8, !tbaa !222
  %77 = getelementptr ptr, ptr %76, i64 1
  %78 = load ptr, ptr %77, align 8, !tbaa !4
  call void @_PyArg_BadArgument(ptr noundef @.str.2, ptr noundef @.str.280, ptr noundef @.str.121, ptr noundef %78)
  br label %115

79:                                               ; preds = %65
  %80 = load ptr, ptr %7, align 8, !tbaa !222
  %81 = getelementptr ptr, ptr %80, i64 1
  %82 = load ptr, ptr %81, align 8, !tbaa !4
  store ptr %82, ptr %14, align 8, !tbaa !4
  %83 = load i64, ptr %12, align 8, !tbaa !185
  %84 = icmp ne i64 %83, 0
  br i1 %84, label %86, label %85

85:                                               ; preds = %79
  br label %109

86:                                               ; preds = %79
  call void @llvm.lifetime.start.p0(i64 8, ptr %16) #12
  store i64 -1, ptr %16, align 8, !tbaa !185
  call void @llvm.lifetime.start.p0(i64 8, ptr %17) #12
  %87 = load ptr, ptr %7, align 8, !tbaa !222
  %88 = getelementptr ptr, ptr %87, i64 2
  %89 = load ptr, ptr %88, align 8, !tbaa !4
  %90 = call ptr @_PyNumber_Index(ptr noundef %89)
  store ptr %90, ptr %17, align 8, !tbaa !4
  %91 = load ptr, ptr %17, align 8, !tbaa !4
  %92 = icmp ne ptr %91, null
  br i1 %92, label %93, label %97

93:                                               ; preds = %86
  %94 = load ptr, ptr %17, align 8, !tbaa !4
  %95 = call i64 @PyLong_AsSsize_t(ptr noundef %94)
  store i64 %95, ptr %16, align 8, !tbaa !185
  %96 = load ptr, ptr %17, align 8, !tbaa !4
  call void @Py_DECREF(ptr noundef %96)
  br label %97

97:                                               ; preds = %93, %86
  %98 = load i64, ptr %16, align 8, !tbaa !185
  %99 = icmp eq i64 %98, -1
  br i1 %99, label %100, label %104

100:                                              ; preds = %97
  %101 = call ptr @PyErr_Occurred()
  %102 = icmp ne ptr %101, null
  br i1 %102, label %103, label %104

103:                                              ; preds = %100
  store i32 2, ptr %18, align 4
  br label %106

104:                                              ; preds = %100, %97
  %105 = load i64, ptr %16, align 8, !tbaa !185
  store i64 %105, ptr %15, align 8, !tbaa !185
  store i32 0, ptr %18, align 4
  br label %106

106:                                              ; preds = %103, %104
  call void @llvm.lifetime.end.p0(i64 8, ptr %17) #12
  call void @llvm.lifetime.end.p0(i64 8, ptr %16) #12
  %107 = load i32, ptr %18, align 4
  switch i32 %107, label %117 [
    i32 0, label %108
    i32 2, label %115
  ]

108:                                              ; preds = %106
  br label %109

109:                                              ; preds = %108, %85
  %110 = load ptr, ptr %6, align 8, !tbaa !4
  %111 = load ptr, ptr %13, align 8, !tbaa !4
  %112 = load ptr, ptr %14, align 8, !tbaa !4
  %113 = load i64, ptr %15, align 8, !tbaa !185
  %114 = call ptr @unicode_replace_impl(ptr noundef %110, ptr noundef %111, ptr noundef %112, i64 noundef %113)
  store ptr %114, ptr %10, align 8, !tbaa !4
  br label %115

115:                                              ; preds = %109, %106, %75, %61, %53
  %116 = load ptr, ptr %10, align 8, !tbaa !4
  store ptr %116, ptr %5, align 8
  store i32 1, ptr %18, align 4
  br label %117

117:                                              ; preds = %115, %106
  call void @llvm.lifetime.end.p0(i64 8, ptr %15) #12
  call void @llvm.lifetime.end.p0(i64 8, ptr %14) #12
  call void @llvm.lifetime.end.p0(i64 8, ptr %13) #12
  call void @llvm.lifetime.end.p0(i64 8, ptr %12) #12
  call void @llvm.lifetime.end.p0(i64 24, ptr %11) #12
  call void @llvm.lifetime.end.p0(i64 8, ptr %10) #12
  %118 = load ptr, ptr %5, align 8
  ret ptr %118
}