; Function Attrs: nounwind uwtable
define internal ptr @unicode_replace(ptr noundef %0, ptr noundef %1, i64 noundef %2, ptr noundef %3) #0 {
  %5 = alloca [3 x ptr], align 16
  call void @llvm.lifetime.start.p0(i64 24, ptr nonnull %5) #41
  %.not = icmp eq ptr %3, null
  br i1 %.not, label %8, label %.thread

.thread:                                          ; preds = %4
  %6 = getelementptr i8, ptr %3, i64 16
  %.val54 = load i64, ptr %6, align 8, !tbaa !268
  %7 = add i64 %.val54, %2
  br label %12

8:                                                ; preds = %4
  %9 = and i64 %2, -2
  %10 = icmp eq i64 %9, 2
  %11 = icmp ne ptr %1, null
  %or.cond5 = and i1 %11, %10
  br i1 %or.cond5, label %.thread57, label %12

12:                                               ; preds = %8, %.thread
  %13 = phi i64 [ %7, %.thread ], [ %2, %8 ]
  %14 = call ptr @_PyArg_UnpackKeywords(ptr noundef %1, i64 noundef %2, ptr noundef null, ptr noundef %3, ptr noundef nonnull @unicode_replace._parser, i32 noundef 2, i32 noundef 3, i32 noundef 0, i32 noundef 0, ptr noundef nonnull %5) #41
  %.not44 = icmp eq ptr %14, null
  br i1 %.not44, label %44, label %.thread57

.thread57:                                        ; preds = %8, %12
  %15 = phi ptr [ %14, %12 ], [ %1, %8 ]
  %16 = phi i64 [ %13, %12 ], [ %2, %8 ]
  %17 = load ptr, ptr %15, align 8, !tbaa !183
  %18 = getelementptr i8, ptr %17, i64 8
  %.val51 = load ptr, ptr %18, align 8, !tbaa !187
  %19 = getelementptr i8, ptr %.val51, i64 168
  %.val53 = load i64, ptr %19, align 8, !tbaa !188
  %20 = and i64 %.val53, 268435456
  %.not45 = icmp eq i64 %20, 0
  br i1 %.not45, label %21, label %22

21:                                               ; preds = %.thread57
  call void @_PyArg_BadArgument(ptr noundef nonnull @.str.2, ptr noundef nonnull @.str.279, ptr noundef nonnull @.str.121, ptr noundef nonnull %17) #41
  br label %44

22:                                               ; preds = %.thread57
  %23 = getelementptr i8, ptr %15, i64 8
  %24 = load ptr, ptr %23, align 8, !tbaa !183
  %25 = getelementptr i8, ptr %24, i64 8
  %.val = load ptr, ptr %25, align 8, !tbaa !187
  %26 = getelementptr i8, ptr %.val, i64 168
  %.val52 = load i64, ptr %26, align 8, !tbaa !188
  %27 = and i64 %.val52, 268435456
  %.not46 = icmp eq i64 %27, 0
  br i1 %.not46, label %28, label %29

28:                                               ; preds = %22
  call void @_PyArg_BadArgument(ptr noundef nonnull @.str.2, ptr noundef nonnull @.str.280, ptr noundef nonnull @.str.121, ptr noundef nonnull %24) #41
  br label %44

29:                                               ; preds = %22
  %.not47 = icmp eq i64 %16, 2
  br i1 %.not47, label %.thread62, label %30

30:                                               ; preds = %29
  %31 = getelementptr i8, ptr %15, i64 16
  %32 = load ptr, ptr %31, align 8, !tbaa !183
  %33 = call ptr @_PyNumber_Index(ptr noundef %32) #41
  %.not48 = icmp eq ptr %33, null
  br i1 %.not48, label %Py_DECREF.exit.thread, label %34

34:                                               ; preds = %30
  %35 = call i64 @PyLong_AsSsize_t(ptr noundef nonnull %33) #41
  %36 = load i32, ptr %33, align 8, !tbaa !195
  %.not.i = icmp sgt i32 %36, -1
  br i1 %.not.i, label %37, label %Py_DECREF.exit

37:                                               ; preds = %34
  %38 = add nsw i32 %36, -1
  store i32 %38, ptr %33, align 8, !tbaa !195
  %39 = icmp eq i32 %38, 0
  br i1 %39, label %40, label %Py_DECREF.exit

40:                                               ; preds = %37
  call void @_Py_Dealloc(ptr noundef nonnull %33) #41
  br label %Py_DECREF.exit

Py_DECREF.exit:                                   ; preds = %40, %37, %34
  %41 = icmp eq i64 %35, -1
  br i1 %41, label %Py_DECREF.exit.thread, label %.thread62

Py_DECREF.exit.thread:                            ; preds = %30, %Py_DECREF.exit
  %42 = call ptr @PyErr_Occurred() #41
  %.not49 = icmp eq ptr %42, null
  br i1 %.not49, label %.thread62, label %44

.thread62:                                        ; preds = %Py_DECREF.exit.thread, %Py_DECREF.exit, %29
  %.038 = phi i64 [ -1, %29 ], [ %35, %Py_DECREF.exit ], [ -1, %Py_DECREF.exit.thread ]
  %43 = call fastcc ptr @replace(ptr noundef %0, ptr noundef nonnull %17, ptr noundef nonnull %24, i64 noundef %.038)
  br label %44

44:                                               ; preds = %Py_DECREF.exit.thread, %21, %28, %.thread62, %12
  %.039 = phi ptr [ %43, %.thread62 ], [ null, %28 ], [ null, %21 ], [ null, %12 ], [ null, %Py_DECREF.exit.thread ]
  call void @llvm.lifetime.end.p0(i64 24, ptr nonnull %5) #41
  ret ptr %.039
}